target datalayout = "e-m:e-p270:32:32-p271:32:32-p272:64:64-i64:64-i128:128-f80:128-n8:16:32:64-S128"
target triple = "x86_64-pc-linux-gnu"

%struct._libxml_doc_props = type { ptr, i8, i8, i8, i8, i8, i8, i8 }
%struct._zval_struct = type { %union._zend_value, %union.anon.9, %union.anon.12 }
%union._zend_value = type { i64 }
%union.anon.9 = type { i32 }
%union.anon.12 = type { i32 }
%struct._zend_refcounted_h = type { i32, %union.anon.0 }
%union.anon.0 = type { i32 }
%struct._xmlNode = type { ptr, i32, ptr, ptr, ptr, ptr, ptr, ptr, ptr, ptr, ptr, ptr, ptr, ptr, i16, i16 }
%struct._php_libxml_ref_obj = type { ptr, ptr, %struct.php_libxml_cache_tag, i32, i8 }
%struct.php_libxml_cache_tag = type { i64 }
%struct._dom_object = type { ptr, ptr, ptr, %struct._zend_object }
%struct._zend_object = type { %struct._zend_refcounted_h, i32, ptr, ptr, ptr, [1 x %struct._zval_struct] }

@default_doc_props = internal constant %struct._libxml_doc_props { ptr null, i8 0, i8 0, i8 0, i8 1, i8 0, i8 1, i8 0 }, align 8

; Function Attrs: nounwind uwtable
define hidden ptr @dom_get_doc_props(ptr noundef %0) #0 {
  %2 = alloca ptr, align 8
  %3 = alloca ptr, align 8
  %4 = alloca ptr, align 8
  store ptr %0, ptr %3, align 8
  %5 = load ptr, ptr %3, align 8
  %6 = icmp ne ptr %5, null
  br i1 %6, label %7, label %16

7:                                                ; preds = %1
  %8 = load ptr, ptr %3, align 8
  %9 = getelementptr inbounds %struct._php_libxml_ref_obj, ptr %8, i32 0, i32 1
  %10 = load ptr, ptr %9, align 8
  %11 = icmp ne ptr %10, null
  br i1 %11, label %12, label %16

12:                                               ; preds = %7
  %13 = load ptr, ptr %3, align 8
  %14 = getelementptr inbounds %struct._php_libxml_ref_obj, ptr %13, i32 0, i32 1
  %15 = load ptr, ptr %14, align 8
  store ptr %15, ptr %2, align 8
  br label %27

16:                                               ; preds = %7, %1
  %17 = call noalias ptr @_emalloc_16()
  store ptr %17, ptr %4, align 8
  %18 = load ptr, ptr %4, align 8
  call void @llvm.memcpy.p0.p0.i64(ptr align 8 %18, ptr align 8 @default_doc_props, i64 16, i1 false)
  %19 = load ptr, ptr %3, align 8
  %20 = icmp ne ptr %19, null
  br i1 %20, label %21, label %25

21:                                               ; preds = %16
  %22 = load ptr, ptr %4, align 8
  %23 = load ptr, ptr %3, align 8
  %24 = getelementptr inbounds %struct._php_libxml_ref_obj, ptr %23, i32 0, i32 1
  store ptr %22, ptr %24, align 8
  br label %25

25:                                               ; preds = %21, %16
  %26 = load ptr, ptr %4, align 8
  store ptr %26, ptr %2, align 8
  br label %27

27:                                               ; preds = %25, %12
  %28 = load ptr, ptr %2, align 8
  ret ptr %28
}

; Function Attrs: nounwind uwtable
define hidden ptr @dom_get_doc_props_read_only(ptr noundef %0) #0 {
  %2 = alloca ptr, align 8
  %3 = alloca ptr, align 8
  store ptr %0, ptr %3, align 8
  %4 = load ptr, ptr %3, align 8
  %5 = icmp ne ptr %4, null
  br i1 %5, label %6, label %15

6:                                                ; preds = %1
  %7 = load ptr, ptr %3, align 8
  %8 = getelementptr inbounds %struct._php_libxml_ref_obj, ptr %7, i32 0, i32 1
  %9 = load ptr, ptr %8, align 8
  %10 = icmp ne ptr %9, null
  br i1 %10, label %11, label %15

11:                                               ; preds = %6
  %12 = load ptr, ptr %3, align 8
  %13 = getelementptr inbounds %struct._php_libxml_ref_obj, ptr %12, i32 0, i32 1
  %14 = load ptr, ptr %13, align 8
  store ptr %14, ptr %2, align 8
  br label %16

15:                                               ; preds = %6, %1
  store ptr @default_doc_props, ptr %2, align 8
  br label %16

16:                                               ; preds = %15, %11
  %17 = load ptr, ptr %2, align 8
  ret ptr %17
}

; Function Attrs: nounwind uwtable
define internal void @dom_copy_doc_props(ptr noundef %0, ptr noundef %1) #0 {
  %3 = alloca ptr, align 8
  %4 = alloca ptr, align 8
  %5 = alloca ptr, align 8
  %6 = alloca ptr, align 8
  store ptr %0, ptr %3, align 8
  store ptr %1, ptr %4, align 8
  %7 = load ptr, ptr %3, align 8
  %8 = icmp ne ptr %7, null
  br i1 %8, label %9, label %91

9:                                                ; preds = %2
  %10 = load ptr, ptr %4, align 8
  %11 = icmp ne ptr %10, null
  br i1 %11, label %12, label %91

12:                                               ; preds = %9
  %13 = load ptr, ptr %3, align 8
  %14 = call ptr @dom_get_doc_props_read_only(ptr noundef %13)
  store ptr %14, ptr %6, align 8
  %15 = load ptr, ptr %4, align 8
  %16 = call ptr @dom_get_doc_props(ptr noundef %15)
  store ptr %16, ptr %5, align 8
  %17 = load ptr, ptr %6, align 8
  %18 = getelementptr inbounds %struct._libxml_doc_props, ptr %17, i32 0, i32 1
  %19 = load i8, ptr %18, align 8
  %20 = trunc i8 %19 to i1
  %21 = load ptr, ptr %5, align 8
  %22 = getelementptr inbounds %struct._libxml_doc_props, ptr %21, i32 0, i32 1
  %23 = zext i1 %20 to i8
  store i8 %23, ptr %22, align 8
  %24 = load ptr, ptr %6, align 8
  %25 = getelementptr inbounds %struct._libxml_doc_props, ptr %24, i32 0, i32 2
  %26 = load i8, ptr %25, align 1
  %27 = trunc i8 %26 to i1
  %28 = load ptr, ptr %5, align 8
  %29 = getelementptr inbounds %struct._libxml_doc_props, ptr %28, i32 0, i32 2
  %30 = zext i1 %27 to i8
  store i8 %30, ptr %29, align 1
  %31 = load ptr, ptr %6, align 8
  %32 = getelementptr inbounds %struct._libxml_doc_props, ptr %31, i32 0, i32 3
  %33 = load i8, ptr %32, align 2
  %34 = trunc i8 %33 to i1
  %35 = load ptr, ptr %5, align 8
  %36 = getelementptr inbounds %struct._libxml_doc_props, ptr %35, i32 0, i32 3
  %37 = zext i1 %34 to i8
  store i8 %37, ptr %36, align 2
  %38 = load ptr, ptr %6, align 8
  %39 = getelementptr inbounds %struct._libxml_doc_props, ptr %38, i32 0, i32 4
  %40 = load i8, ptr %39, align 1
  %41 = trunc i8 %40 to i1
  %42 = load ptr, ptr %5, align 8
  %43 = getelementptr inbounds %struct._libxml_doc_props, ptr %42, i32 0, i32 4
  %44 = zext i1 %41 to i8
  store i8 %44, ptr %43, align 1
  %45 = load ptr, ptr %6, align 8
  %46 = getelementptr inbounds %struct._libxml_doc_props, ptr %45, i32 0, i32 5
  %47 = load i8, ptr %46, align 4
  %48 = trunc i8 %47 to i1
  %49 = load ptr, ptr %5, align 8
  %50 = getelementptr inbounds %struct._libxml_doc_props, ptr %49, i32 0, i32 5
  %51 = zext i1 %48 to i8
  store i8 %51, ptr %50, align 4
  %52 = load ptr, ptr %6, align 8
  %53 = getelementptr inbounds %struct._libxml_doc_props, ptr %52, i32 0, i32 6
  %54 = load i8, ptr %53, align 1
  %55 = trunc i8 %54 to i1
  %56 = load ptr, ptr %5, align 8
  %57 = getelementptr inbounds %struct._libxml_doc_props, ptr %56, i32 0, i32 6
  %58 = zext i1 %55 to i8
  store i8 %58, ptr %57, align 1
  %59 = load ptr, ptr %6, align 8
  %60 = getelementptr inbounds %struct._libxml_doc_props, ptr %59, i32 0, i32 7
  %61 = load i8, ptr %60, align 2
  %62 = trunc i8 %61 to i1
  %63 = load ptr, ptr %5, align 8
  %64 = getelementptr inbounds %struct._libxml_doc_props, ptr %63, i32 0, i32 7
  %65 = zext i1 %62 to i8
  store i8 %65, ptr %64, align 2
  %66 = load ptr, ptr %6, align 8
  %67 = getelementptr inbounds %struct._libxml_doc_props, ptr %66, i32 0, i32 0
  %68 = load ptr, ptr %67, align 8
  %69 = icmp ne ptr %68, null
  br i1 %69, label %70, label %83

70:                                               ; preds = %12
  %71 = call noalias ptr @_emalloc_56()
  %72 = load ptr, ptr %5, align 8
  %73 = getelementptr inbounds %struct._libxml_doc_props, ptr %72, i32 0, i32 0
  store ptr %71, ptr %73, align 8
  %74 = load ptr, ptr %5, align 8
  %75 = getelementptr inbounds %struct._libxml_doc_props, ptr %74, i32 0, i32 0
  %76 = load ptr, ptr %75, align 8
  call void @_zend_hash_init(ptr noundef %76, i32 noundef 0, ptr noundef null, i1 noundef zeroext false)
  %77 = load ptr, ptr %5, align 8
  %78 = getelementptr inbounds %struct._libxml_doc_props, ptr %77, i32 0, i32 0
  %79 = load ptr, ptr %78, align 8
  %80 = load ptr, ptr %6, align 8
  %81 = getelementptr inbounds %struct._libxml_doc_props, ptr %80, i32 0, i32 0
  %82 = load ptr, ptr %81, align 8
  call void @zend_hash_copy(ptr noundef %79, ptr noundef %82, ptr noundef null)
  br label %83

83:                                               ; preds = %70, %12
  %84 = load ptr, ptr %3, align 8
  %85 = getelementptr inbounds %struct._php_libxml_ref_obj, ptr %84, i32 0, i32 4
  %86 = load i8, ptr %85, align 4
  %87 = trunc i8 %86 to i1
  %88 = load ptr, ptr %4, align 8
  %89 = getelementptr inbounds %struct._php_libxml_ref_obj, ptr %88, i32 0, i32 4
  %90 = zext i1 %87 to i8
  store i8 %90, ptr %89, align 4
  br label %91

91:                                               ; preds = %83, %9, %2
  ret void
}

; Function Attrs: nounwind uwtable
define internal void @dom_update_refcount_after_clone(ptr noundef %0, ptr noundef %1, ptr noundef %2, ptr noundef %3) #0 {
  %5 = alloca ptr, align 8
  %6 = alloca ptr, align 8
  %7 = alloca ptr, align 8
  %8 = alloca ptr, align 8
  store ptr %0, ptr %5, align 8
  store ptr %1, ptr %6, align 8
  store ptr %2, ptr %7, align 8
  store ptr %3, ptr %8, align 8
  %9 = load ptr, ptr %8, align 8
  %10 = getelementptr inbounds %struct._xmlNode, ptr %9, i32 0, i32 8
  %11 = load ptr, ptr %10, align 8
  %12 = load ptr, ptr %6, align 8
  %13 = getelementptr inbounds %struct._xmlNode, ptr %12, i32 0, i32 8
  %14 = load ptr, ptr %13, align 8
  %15 = icmp eq ptr %11, %14
  br i1 %15, label %16, label %22

16:                                               ; preds = %4
  %17 = load ptr, ptr %5, align 8
  %18 = getelementptr inbounds %struct._dom_object, ptr %17, i32 0, i32 1
  %19 = load ptr, ptr %18, align 8
  %20 = load ptr, ptr %7, align 8
  %21 = getelementptr inbounds %struct._dom_object, ptr %20, i32 0, i32 1
  store ptr %19, ptr %21, align 8
  br label %22

22:                                               ; preds = %16, %4
  %23 = load ptr, ptr %7, align 8
  %24 = load ptr, ptr %8, align 8
  %25 = getelementptr inbounds %struct._xmlNode, ptr %24, i32 0, i32 8
  %26 = load ptr, ptr %25, align 8
  %27 = call i32 @php_libxml_increment_doc_ref(ptr noundef %23, ptr noundef %26)
  %28 = load ptr, ptr %7, align 8
  %29 = load ptr, ptr %8, align 8
  %30 = load ptr, ptr %7, align 8
  %31 = call i32 @php_libxml_increment_node_ptr(ptr noundef %28, ptr noundef %29, ptr noundef %30)
  %32 = load ptr, ptr %5, align 8
  %33 = getelementptr inbounds %struct._dom_object, ptr %32, i32 0, i32 1
  %34 = load ptr, ptr %33, align 8
  %35 = load ptr, ptr %7, align 8
  %36 = getelementptr inbounds %struct._dom_object, ptr %35, i32 0, i32 1
  %37 = load ptr, ptr %36, align 8
  %38 = icmp ne ptr %34, %37
  br i1 %38, label %39, label %46

39:                                               ; preds = %22
  %40 = load ptr, ptr %5, align 8
  %41 = getelementptr inbounds %struct._dom_object, ptr %40, i32 0, i32 1
  %42 = load ptr, ptr %41, align 8
  %43 = load ptr, ptr %7, align 8
  %44 = getelementptr inbounds %struct._dom_object, ptr %43, i32 0, i32 1
  %45 = load ptr, ptr %44, align 8
  call void @dom_copy_doc_props(ptr noundef %42, ptr noundef %45)
  br label %46

46:                                               ; preds = %39, %22
  ret void
}