; Function Attrs: nounwind uwtable
define internal fastcc void @dom_update_refcount_after_clone(ptr nocapture noundef readonly %0, ptr readnone %.64.val, ptr noundef %1, ptr noundef %2) unnamed_addr #1 {
  %4 = getelementptr inbounds i8, ptr %2, i64 64
  %5 = load ptr, ptr %4, align 8
  %6 = icmp eq ptr %5, %.64.val
  br i1 %6, label %7, label %11

7:                                                ; preds = %3
  %8 = getelementptr inbounds i8, ptr %0, i64 8
  %9 = load ptr, ptr %8, align 8
  %10 = getelementptr inbounds i8, ptr %1, i64 8
  store ptr %9, ptr %10, align 8
  %.pre = load ptr, ptr %4, align 8
  br label %11

11:                                               ; preds = %7, %3
  %12 = phi ptr [ %.pre, %7 ], [ %5, %3 ]
  %13 = tail call i32 @php_libxml_increment_doc_ref(ptr noundef %1, ptr noundef %12) #16
  %14 = tail call i32 @php_libxml_increment_node_ptr(ptr noundef %1, ptr noundef nonnull %2, ptr noundef %1) #16
  %15 = getelementptr inbounds i8, ptr %0, i64 8
  %16 = load ptr, ptr %15, align 8
  %17 = getelementptr inbounds i8, ptr %1, i64 8
  %18 = load ptr, ptr %17, align 8
  %.not = icmp eq ptr %16, %18
  br i1 %.not, label %dom_copy_doc_props.exit, label %19

19:                                               ; preds = %11
  %20 = icmp ne ptr %16, null
  %21 = icmp ne ptr %18, null
  %or.cond.i = and i1 %20, %21
  br i1 %or.cond.i, label %dom_get_doc_props_read_only.exit.i, label %dom_copy_doc_props.exit

dom_get_doc_props_read_only.exit.i:               ; preds = %19
  %22 = getelementptr inbounds i8, ptr %16, i64 8
  %23 = load ptr, ptr %22, align 8
  %.not6.i.i = icmp eq ptr %23, null
  %spec.select.i = select i1 %.not6.i.i, ptr @default_doc_props, ptr %23
  %24 = getelementptr inbounds i8, ptr %18, i64 8
  %25 = load ptr, ptr %24, align 8
  %.not11.i.i = icmp eq ptr %25, null
  br i1 %.not11.i.i, label %26, label %dom_get_doc_props.exit.i

26:                                               ; preds = %dom_get_doc_props_read_only.exit.i
  %27 = tail call noalias ptr @_emalloc_16() #16
  tail call void @llvm.memcpy.p0.p0.i64(ptr noundef nonnull align 8 dereferenceable(16) %27, ptr noundef nonnull align 8 dereferenceable(16) @default_doc_props, i64 16, i1 false)
  store ptr %27, ptr %24, align 8
  br label %dom_get_doc_props.exit.i

dom_get_doc_props.exit.i:                         ; preds = %26, %dom_get_doc_props_read_only.exit.i
  %.0.i28.i = phi ptr [ %25, %dom_get_doc_props_read_only.exit.i ], [ %27, %26 ]
  %28 = getelementptr inbounds i8, ptr %spec.select.i, i64 8
  %29 = load i8, ptr %28, align 8
  %30 = and i8 %29, 1
  %31 = getelementptr inbounds i8, ptr %.0.i28.i, i64 8
  store i8 %30, ptr %31, align 8
  %32 = getelementptr inbounds i8, ptr %spec.select.i, i64 9
  %33 = load i8, ptr %32, align 1
  %34 = and i8 %33, 1
  %35 = getelementptr inbounds i8, ptr %.0.i28.i, i64 9
  store i8 %34, ptr %35, align 1
  %36 = getelementptr inbounds i8, ptr %spec.select.i, i64 10
  %37 = load i8, ptr %36, align 2
  %38 = and i8 %37, 1
  %39 = getelementptr inbounds i8, ptr %.0.i28.i, i64 10
  store i8 %38, ptr %39, align 2
  %40 = getelementptr inbounds i8, ptr %spec.select.i, i64 11
  %41 = load i8, ptr %40, align 1
  %42 = and i8 %41, 1
  %43 = getelementptr inbounds i8, ptr %.0.i28.i, i64 11
  store i8 %42, ptr %43, align 1
  %44 = getelementptr inbounds i8, ptr %spec.select.i, i64 12
  %45 = load i8, ptr %44, align 4
  %46 = and i8 %45, 1
  %47 = getelementptr inbounds i8, ptr %.0.i28.i, i64 12
  store i8 %46, ptr %47, align 4
  %48 = getelementptr inbounds i8, ptr %spec.select.i, i64 13
  %49 = load i8, ptr %48, align 1
  %50 = and i8 %49, 1
  %51 = getelementptr inbounds i8, ptr %.0.i28.i, i64 13
  store i8 %50, ptr %51, align 1
  %52 = getelementptr inbounds i8, ptr %spec.select.i, i64 14
  %53 = load i8, ptr %52, align 2
  %54 = and i8 %53, 1
  %55 = getelementptr inbounds i8, ptr %.0.i28.i, i64 14
  store i8 %54, ptr %55, align 2
  %56 = load ptr, ptr %spec.select.i, align 8
  %.not.i = icmp eq ptr %56, null
  br i1 %.not.i, label %61, label %57

57:                                               ; preds = %dom_get_doc_props.exit.i
  %58 = tail call noalias ptr @_emalloc_56() #16
  store ptr %58, ptr %.0.i28.i, align 8
  tail call void @_zend_hash_init(ptr noundef %58, i32 noundef 0, ptr noundef null, i1 noundef zeroext false) #16
  %59 = load ptr, ptr %.0.i28.i, align 8
  %60 = load ptr, ptr %spec.select.i, align 8
  tail call void @zend_hash_copy(ptr noundef %59, ptr noundef %60, ptr noundef null) #16
  br label %61

61:                                               ; preds = %57, %dom_get_doc_props.exit.i
  %62 = getelementptr inbounds i8, ptr %16, i64 28
  %63 = load i8, ptr %62, align 4
  %64 = and i8 %63, 1
  %65 = getelementptr inbounds i8, ptr %18, i64 28
  store i8 %64, ptr %65, align 4
  br label %dom_copy_doc_props.exit

dom_copy_doc_props.exit:                          ; preds = %61, %19, %11
  ret void
}